; Function Attrs: nounwind uwtable
define hidden ptr @SDL_ReadProcess_REAL(ptr noundef %0, ptr noundef %1, ptr noundef writeonly captures(address_is_null) %2) local_unnamed_addr #0 {
  %.not = icmp eq ptr %1, null
  br i1 %.not, label %5, label %4

4:                                                ; preds = %3
  store i64 0, ptr %1, align 8
  br label %5

5:                                                ; preds = %4, %3
  %.not17 = icmp eq ptr %2, null
  br i1 %.not17, label %7, label %6

6:                                                ; preds = %5
  store i32 -1, ptr %2, align 4
  br label %7

7:                                                ; preds = %6, %5
  %.not18 = icmp eq ptr %0, null
  br i1 %.not18, label %8, label %10

8:                                                ; preds = %7
  %9 = tail call zeroext i1 (ptr, ...) @SDL_SetError_REAL(ptr noundef nonnull @.str, ptr noundef nonnull @.str.8) #3
  br label %SDL_WaitProcess_REAL.exit

10:                                               ; preds = %7
  %11 = getelementptr inbounds nuw i8, ptr %0, i64 8
  %12 = load i32, ptr %11, align 8
  %13 = tail call ptr @SDL_GetPointerProperty_REAL(i32 noundef %12, ptr noundef nonnull @.str.9, ptr noundef null) #3
  %.not19 = icmp eq ptr %13, null
  br i1 %.not19, label %14, label %16

14:                                               ; preds = %10
  %15 = tail call zeroext i1 (ptr, ...) @SDL_SetError_REAL(ptr noundef nonnull @.str.10) #3
  br label %SDL_WaitProcess_REAL.exit

16:                                               ; preds = %10
  %17 = tail call ptr @SDL_LoadFile_IO_REAL(ptr noundef nonnull %13, ptr noundef %1, i1 noundef zeroext false) #3
  %18 = load i8, ptr %0, align 8, !range !3, !noundef !4
  %19 = trunc nuw i8 %18 to i1
  br i1 %19, label %24, label %20

20:                                               ; preds = %16
  br i1 %.not17, label %SDL_WaitProcess_REAL.exit, label %21

21:                                               ; preds = %20
  %22 = getelementptr inbounds nuw i8, ptr %0, i64 4
  %23 = load i32, ptr %22, align 4
  store i32 %23, ptr %2, align 4
  br label %SDL_WaitProcess_REAL.exit

24:                                               ; preds = %16
  %25 = getelementptr inbounds nuw i8, ptr %0, i64 4
  %26 = tail call zeroext i1 @SDL_SYS_WaitProcess(ptr noundef nonnull %0, i1 noundef zeroext true, ptr noundef nonnull %25) #3
  br i1 %26, label %27, label %SDL_WaitProcess_REAL.exit

27:                                               ; preds = %24
  store i8 0, ptr %0, align 8
  br i1 %.not17, label %SDL_WaitProcess_REAL.exit, label %28

28:                                               ; preds = %27
  %29 = getelementptr inbounds nuw i8, ptr %0, i64 1
  %30 = load i8, ptr %29, align 1, !range !3, !noundef !4
  %31 = trunc nuw i8 %30 to i1
  br i1 %31, label %32, label %._crit_edge.i

._crit_edge.i:                                    ; preds = %28
  %.pre.i = load i32, ptr %25, align 4
  br label %33

32:                                               ; preds = %28
  store i32 0, ptr %25, align 4
  br label %33

33:                                               ; preds = %32, %._crit_edge.i
  %34 = phi i32 [ %.pre.i, %._crit_edge.i ], [ 0, %32 ]
  store i32 %34, ptr %2, align 4
  br label %SDL_WaitProcess_REAL.exit

SDL_WaitProcess_REAL.exit:                        ; preds = %33, %27, %24, %21, %20, %14, %8
  %.0 = phi ptr [ null, %8 ], [ null, %14 ], [ %17, %20 ], [ %17, %21 ], [ %17, %24 ], [ %17, %27 ], [ %17, %33 ]
  ret ptr %.0
}